target datalayout = "e-m:e-p270:32:32-p271:32:32-p272:64:64-i64:64-i128:128-f80:128-n8:16:32:64-S128"
target triple = "x86_64-pc-linux-gnu"

%struct.SDL_VideoDevice = type { ptr, ptr, ptr, ptr, ptr, ptr, ptr, ptr, ptr, ptr, ptr, ptr, ptr, ptr, ptr, ptr, ptr, ptr, ptr, ptr, ptr, ptr, ptr, ptr, ptr, ptr, ptr, ptr, ptr, ptr, ptr, ptr, ptr, ptr, ptr, ptr, ptr, ptr, ptr, ptr, ptr, ptr, ptr, ptr, ptr, ptr, ptr, ptr, ptr, ptr, ptr, ptr, ptr, ptr, ptr, ptr, ptr, ptr, ptr, ptr, ptr, ptr, ptr, ptr, ptr, ptr, ptr, ptr, ptr, ptr, ptr, ptr, ptr, ptr, ptr, ptr, ptr, ptr, ptr, ptr, ptr, ptr, ptr, ptr, ptr, ptr, ptr, ptr, ptr, ptr, ptr, ptr, ptr, ptr, ptr, ptr, ptr, i64, i8, i8, i8, ptr, i32, ptr, %struct.SDL_Rect, ptr, ptr, i32, ptr, ptr, ptr, ptr, i64, ptr, i8, i32, i32, %struct.anon, ptr, ptr, ptr, ptr, ptr, ptr, %struct.SDL_AtomicInt, %struct.SDL_AtomicInt, i8, %struct.anon.0, ptr, ptr, ptr, ptr, ptr }
%struct.SDL_Rect = type { i32, i32, i32, i32 }
%struct.anon = type { i32, i32, i32, i32, i32, i32, i32, i32, i32, i32, i32, i32, i32, i32, i32, i32, i32, i32, i32, i32, i32, i32, i32, i32, i32, i32, i32, i32, i32, [256 x i8], ptr }
%struct.SDL_AtomicInt = type { i32 }
%struct.anon.0 = type { ptr, ptr, i32, [256 x i8], ptr }
%struct.SDL_EGL_VideoData = type { ptr, ptr, ptr, ptr, i32, i32, i32, i32, i32, i8, i32, ptr, ptr, ptr, ptr, ptr, ptr, ptr, ptr, ptr, ptr, ptr, ptr, ptr, ptr, ptr, ptr, ptr, ptr, ptr, ptr, ptr, ptr, ptr, ptr, ptr, ptr, ptr }

@.str = private unnamed_addr constant [5 x i8] c"0x%x\00", align 1
@.str.1 = private unnamed_addr constant [49 x i8] c"%s (call to %s failed, reporting an error of %s)\00", align 1
@.str.19 = private unnamed_addr constant [20 x i8] c"EGL not initialized\00", align 1
@.str.20 = private unnamed_addr constant [46 x i8] c"SDL_EGL_ChooseConfig: found a slow EGL config\00", align 1
@.str.21 = private unnamed_addr constant [34 x i8] c"Couldn't find matching EGL config\00", align 1
@.str.22 = private unnamed_addr constant [16 x i8] c"eglChooseConfig\00", align 1
@.str.47 = private unnamed_addr constant [12 x i8] c"EGL_SUCCESS\00", align 1
@.str.48 = private unnamed_addr constant [20 x i8] c"EGL_NOT_INITIALIZED\00", align 1
@.str.49 = private unnamed_addr constant [15 x i8] c"EGL_BAD_ACCESS\00", align 1
@.str.50 = private unnamed_addr constant [14 x i8] c"EGL_BAD_ALLOC\00", align 1
@.str.51 = private unnamed_addr constant [18 x i8] c"EGL_BAD_ATTRIBUTE\00", align 1
@.str.52 = private unnamed_addr constant [16 x i8] c"EGL_BAD_CONTEXT\00", align 1
@.str.53 = private unnamed_addr constant [15 x i8] c"EGL_BAD_CONFIG\00", align 1
@.str.54 = private unnamed_addr constant [24 x i8] c"EGL_BAD_CURRENT_SURFACE\00", align 1
@.str.55 = private unnamed_addr constant [16 x i8] c"EGL_BAD_DISPLAY\00", align 1
@.str.56 = private unnamed_addr constant [16 x i8] c"EGL_BAD_SURFACE\00", align 1
@.str.57 = private unnamed_addr constant [14 x i8] c"EGL_BAD_MATCH\00", align 1
@.str.58 = private unnamed_addr constant [18 x i8] c"EGL_BAD_PARAMETER\00", align 1
@.str.59 = private unnamed_addr constant [22 x i8] c"EGL_BAD_NATIVE_PIXMAP\00", align 1
@.str.60 = private unnamed_addr constant [22 x i8] c"EGL_BAD_NATIVE_WINDOW\00", align 1
@.str.61 = private unnamed_addr constant [17 x i8] c"EGL_CONTEXT_LOST\00", align 1
@.str.62 = private unnamed_addr constant [1 x i8] zeroinitializer, align 1

; Function Attrs: nounwind uwtable
define internal ptr @SDL_EGL_GetErrorName(i32 noundef %0) #0 {
  %2 = alloca ptr, align 8
  %3 = alloca i32, align 4
  store i32 %0, ptr %3, align 4
  %4 = load i32, ptr %3, align 4
  switch i32 %4, label %20 [
    i32 12288, label %5
    i32 12289, label %6
    i32 12290, label %7
    i32 12291, label %8
    i32 12292, label %9
    i32 12294, label %10
    i32 12293, label %11
    i32 12295, label %12
    i32 12296, label %13
    i32 12301, label %14
    i32 12297, label %15
    i32 12300, label %16
    i32 12298, label %17
    i32 12299, label %18
    i32 12302, label %19
  ]

5:                                                ; preds = %1
  store ptr @.str.47, ptr %2, align 8
  br label %21

6:                                                ; preds = %1
  store ptr @.str.48, ptr %2, align 8
  br label %21

7:                                                ; preds = %1
  store ptr @.str.49, ptr %2, align 8
  br label %21

8:                                                ; preds = %1
  store ptr @.str.50, ptr %2, align 8
  br label %21

9:                                                ; preds = %1
  store ptr @.str.51, ptr %2, align 8
  br label %21

10:                                               ; preds = %1
  store ptr @.str.52, ptr %2, align 8
  br label %21

11:                                               ; preds = %1
  store ptr @.str.53, ptr %2, align 8
  br label %21

12:                                               ; preds = %1
  store ptr @.str.54, ptr %2, align 8
  br label %21

13:                                               ; preds = %1
  store ptr @.str.55, ptr %2, align 8
  br label %21

14:                                               ; preds = %1
  store ptr @.str.56, ptr %2, align 8
  br label %21

15:                                               ; preds = %1
  store ptr @.str.57, ptr %2, align 8
  br label %21

16:                                               ; preds = %1
  store ptr @.str.58, ptr %2, align 8
  br label %21

17:                                               ; preds = %1
  store ptr @.str.59, ptr %2, align 8
  br label %21

18:                                               ; preds = %1
  store ptr @.str.60, ptr %2, align 8
  br label %21

19:                                               ; preds = %1
  store ptr @.str.61, ptr %2, align 8
  br label %21

20:                                               ; preds = %1
  store ptr @.str.62, ptr %2, align 8
  br label %21

21:                                               ; preds = %20, %19, %18, %17, %16, %15, %14, %13, %12, %11, %10, %9, %8, %7, %6, %5
  %22 = load ptr, ptr %2, align 8
  ret ptr %22
}

; Function Attrs: nounwind uwtable
define hidden zeroext i1 @SDL_EGL_SetErrorEx(ptr noundef %0, ptr noundef %1, i32 noundef %2) #0 {
  %4 = alloca ptr, align 8
  %5 = alloca ptr, align 8
  %6 = alloca i32, align 4
  %7 = alloca ptr, align 8
  %8 = alloca [32 x i8], align 16
  store ptr %0, ptr %4, align 8
  store ptr %1, ptr %5, align 8
  store i32 %2, ptr %6, align 4
  call void @llvm.lifetime.start.p0(i64 8, ptr %7) #5
  %9 = load i32, ptr %6, align 4
  %10 = call ptr @SDL_EGL_GetErrorName(i32 noundef %9)
  store ptr %10, ptr %7, align 8
  call void @llvm.lifetime.start.p0(i64 32, ptr %8) #5
  %11 = load ptr, ptr %7, align 8
  %12 = getelementptr inbounds i8, ptr %11, i64 0
  %13 = load i8, ptr %12, align 1
  %14 = sext i8 %13 to i32
  %15 = icmp eq i32 %14, 0
  br i1 %15, label %16, label %21

16:                                               ; preds = %3
  %17 = getelementptr inbounds [32 x i8], ptr %8, i64 0, i64 0
  %18 = load i32, ptr %6, align 4
  %19 = call i32 (ptr, i64, ptr, ...) @SDL_snprintf_REAL(ptr noundef %17, i64 noundef 32, ptr noundef @.str, i32 noundef %18)
  %20 = getelementptr inbounds [32 x i8], ptr %8, i64 0, i64 0
  store ptr %20, ptr %7, align 8
  br label %21

21:                                               ; preds = %16, %3
  %22 = load ptr, ptr %4, align 8
  %23 = load ptr, ptr %5, align 8
  %24 = load ptr, ptr %7, align 8
  %25 = call zeroext i1 (ptr, ...) @SDL_SetError_REAL(ptr noundef @.str.1, ptr noundef %22, ptr noundef %23, ptr noundef %24)
  call void @llvm.lifetime.end.p0(i64 32, ptr %8) #5
  call void @llvm.lifetime.end.p0(i64 8, ptr %7) #5
  ret i1 %25
}

; Function Attrs: nounwind uwtable
define hidden zeroext i1 @SDL_EGL_ChooseConfig(ptr noundef %0) #0 {
  %2 = alloca i1, align 1
  %3 = alloca ptr, align 8
  store ptr %0, ptr %3, align 8
  %4 = load ptr, ptr %3, align 8
  %5 = getelementptr inbounds nuw %struct.SDL_VideoDevice, ptr %4, i32 0, i32 130
  %6 = load ptr, ptr %5, align 8
  %7 = icmp ne ptr %6, null
  br i1 %7, label %10, label %8

8:                                                ; preds = %1
  %9 = call zeroext i1 (ptr, ...) @SDL_SetError_REAL(ptr noundef @.str.19)
  store i1 %9, ptr %2, align 1
  br label %26

10:                                               ; preds = %1
  %11 = load ptr, ptr %3, align 8
  %12 = call zeroext i1 @SDL_EGL_PrivateChooseConfig(ptr noundef %11, i1 noundef zeroext true)
  br i1 %12, label %13, label %14

13:                                               ; preds = %10
  store i1 true, ptr %2, align 1
  br label %26

14:                                               ; preds = %10
  %15 = load ptr, ptr %3, align 8
  %16 = call zeroext i1 @SDL_EGL_PrivateChooseConfig(ptr noundef %15, i1 noundef zeroext false)
  br i1 %16, label %17, label %18

17:                                               ; preds = %14
  call void (ptr, ...) @SDL_Log_REAL(ptr noundef @.str.20)
  store i1 true, ptr %2, align 1
  br label %26

18:                                               ; preds = %14
  %19 = load ptr, ptr %3, align 8
  %20 = getelementptr inbounds nuw %struct.SDL_VideoDevice, ptr %19, i32 0, i32 130
  %21 = load ptr, ptr %20, align 8
  %22 = getelementptr inbounds nuw %struct.SDL_EGL_VideoData, ptr %21, i32 0, i32 29
  %23 = load ptr, ptr %22, align 8
  %24 = call i32 %23()
  %25 = call zeroext i1 @SDL_EGL_SetErrorEx(ptr noundef @.str.21, ptr noundef @.str.22, i32 noundef %24)
  store i1 %25, ptr %2, align 1
  br label %26

26:                                               ; preds = %18, %17, %13, %8
  %27 = load i1, ptr %2, align 1
  ret i1 %27
}