; Function Attrs: nounwind uwtable
define hidden zeroext i1 @SDL_EGL_ChooseConfig(ptr noundef readonly captures(none) %0) local_unnamed_addr #0 {
  %2 = alloca [32 x i8], align 16
  %3 = getelementptr inbounds nuw i8, ptr %0, i64 1672
  %4 = load ptr, ptr %3, align 8
  %.not = icmp eq ptr %4, null
  br i1 %.not, label %5, label %7

5:                                                ; preds = %1
  %6 = tail call zeroext i1 (ptr, ...) @SDL_SetError_REAL(ptr noundef nonnull @.str.19) #7
  br label %24

7:                                                ; preds = %1
  %8 = tail call fastcc zeroext i1 @SDL_EGL_PrivateChooseConfig(ptr noundef nonnull %0, i1 noundef zeroext true)
  br i1 %8, label %24, label %9

9:                                                ; preds = %7
  %10 = tail call fastcc zeroext i1 @SDL_EGL_PrivateChooseConfig(ptr noundef nonnull %0, i1 noundef zeroext false)
  br i1 %10, label %11, label %12

11:                                               ; preds = %9
  tail call void (ptr, ...) @SDL_Log_REAL(ptr noundef nonnull @.str.20) #7
  br label %24

12:                                               ; preds = %9
  %13 = load ptr, ptr %3, align 8
  %14 = getelementptr inbounds nuw i8, ptr %13, i64 208
  %15 = load ptr, ptr %14, align 8
  %16 = tail call i32 %15() #7
  %switch.tableidx = add i32 %16, -12288
  %17 = icmp ult i32 %switch.tableidx, 15
  br i1 %17, label %switch.lookup, label %SDL_EGL_GetErrorName.exit.i

switch.lookup:                                    ; preds = %12
  %18 = zext nneg i32 %switch.tableidx to i64
  %switch.gep = getelementptr inbounds nuw [15 x ptr], ptr @switch.table.SDL_EGL_CreateSurface, i64 0, i64 %18
  %switch.load = load ptr, ptr %switch.gep, align 8
  br label %SDL_EGL_GetErrorName.exit.i

SDL_EGL_GetErrorName.exit.i:                      ; preds = %12, %switch.lookup
  %.0.i.i = phi ptr [ %switch.load, %switch.lookup ], [ @.str.62, %12 ]
  call void @llvm.lifetime.start.p0(i64 32, ptr nonnull %2) #7
  %19 = load i8, ptr %.0.i.i, align 1
  %20 = icmp eq i8 %19, 0
  br i1 %20, label %21, label %SDL_EGL_SetErrorEx.exit

21:                                               ; preds = %SDL_EGL_GetErrorName.exit.i
  %22 = call i32 (ptr, i64, ptr, ...) @SDL_snprintf_REAL(ptr noundef nonnull %2, i64 noundef 32, ptr noundef nonnull @.str, i32 noundef %16) #7
  br label %SDL_EGL_SetErrorEx.exit

SDL_EGL_SetErrorEx.exit:                          ; preds = %SDL_EGL_GetErrorName.exit.i, %21
  %.0.i = phi ptr [ %2, %21 ], [ %.0.i.i, %SDL_EGL_GetErrorName.exit.i ]
  %23 = call zeroext i1 (ptr, ...) @SDL_SetError_REAL(ptr noundef nonnull @.str.1, ptr noundef nonnull @.str.21, ptr noundef nonnull @.str.22, ptr noundef nonnull %.0.i) #7
  call void @llvm.lifetime.end.p0(i64 32, ptr nonnull %2) #7
  br label %24

24:                                               ; preds = %7, %SDL_EGL_SetErrorEx.exit, %11, %5
  %.0 = phi i1 [ true, %11 ], [ %23, %SDL_EGL_SetErrorEx.exit ], [ %6, %5 ], [ true, %7 ]
  ret i1 %.0
}